target datalayout = "e-m:e-p270:32:32-p271:32:32-p272:64:64-i64:64-i128:128-f80:128-n8:16:32:64-S128"
target triple = "x86_64-pc-linux-gnu"

%"class.clang::OMPClause" = type { %"class.clang::SourceLocation", %"class.clang::SourceLocation", i32 }
%"class.clang::SourceLocation" = type { i32 }
%"class.llvm::StringRef" = type { ptr, i64 }
%"class.clang::OMPClausePrinter" = type { ptr, ptr }
%"class.llvm::raw_ostream" = type { ptr, i32, ptr, ptr, ptr, i8, i32 }
%"class.clang::OMPVarListClause.96" = type { %"class.clang::OMPClause", %"class.clang::SourceLocation", i32 }

@.str.3 = private unnamed_addr constant [2 x i8] c")\00", align 1
@.str.95 = private unnamed_addr constant [14 x i8] c"is_device_ptr\00", align 1

; Function Attrs: mustprogress nounwind uwtable
define linkonce_odr hidden noundef ptr @_ZNK4llvm9StringRef4dataEv(ptr noundef nonnull align 8 dereferenceable(16) %0) #0 comdat align 2 {
  %2 = alloca ptr, align 8
  store ptr %0, ptr %2, align 8
  %3 = load ptr, ptr %2, align 8
  %4 = getelementptr inbounds nuw %"class.llvm::StringRef", ptr %3, i32 0, i32 0
  %5 = load ptr, ptr %4, align 8
  ret ptr %5
}

; Function Attrs: mustprogress nounwind uwtable
define linkonce_odr hidden noundef i64 @_ZNK4llvm9StringRef4sizeEv(ptr noundef nonnull align 8 dereferenceable(16) %0) #0 comdat align 2 {
  %2 = alloca ptr, align 8
  store ptr %0, ptr %2, align 8
  %3 = load ptr, ptr %2, align 8
  %4 = getelementptr inbounds nuw %"class.llvm::StringRef", ptr %3, i32 0, i32 1
  %5 = load i64, ptr %4, align 8
  ret i64 %5
}

; Function Attrs: mustprogress nounwind uwtable
define linkonce_odr hidden noundef i64 @_ZNSt11char_traitsIcE6lengthEPKc(ptr noundef %0) #0 comdat align 2 {
  %2 = alloca ptr, align 8
  store ptr %0, ptr %2, align 8
  %3 = load ptr, ptr %2, align 8
  %4 = call i64 @strlen(ptr noundef %3) #11
  ret i64 %4
}

; Function Attrs: mustprogress nounwind uwtable
define linkonce_odr hidden noundef nonnull align 8 dereferenceable(48) ptr @_ZN4llvm11raw_ostreamlsENS_9StringRefE(ptr noundef nonnull align 8 dereferenceable(48) %0, ptr %1, i64 %2) #0 comdat align 2 {
  %4 = alloca ptr, align 8
  %5 = alloca %"class.llvm::StringRef", align 8
  %6 = alloca ptr, align 8
  %7 = alloca i64, align 8
  %8 = getelementptr inbounds nuw { ptr, i64 }, ptr %5, i32 0, i32 0
  store ptr %1, ptr %8, align 8
  %9 = getelementptr inbounds nuw { ptr, i64 }, ptr %5, i32 0, i32 1
  store i64 %2, ptr %9, align 8
  store ptr %0, ptr %6, align 8
  %10 = load ptr, ptr %6, align 8
  %11 = call noundef i64 @_ZNK4llvm9StringRef4sizeEv(ptr noundef nonnull align 8 dereferenceable(16) %5)
  store i64 %11, ptr %7, align 8
  %12 = load i64, ptr %7, align 8
  %13 = getelementptr inbounds nuw %"class.llvm::raw_ostream", ptr %10, i32 0, i32 3
  %14 = load ptr, ptr %13, align 8
  %15 = getelementptr inbounds nuw %"class.llvm::raw_ostream", ptr %10, i32 0, i32 4
  %16 = load ptr, ptr %15, align 8
  %17 = ptrtoint ptr %14 to i64
  %18 = ptrtoint ptr %16 to i64
  %19 = sub i64 %17, %18
  %20 = icmp ugt i64 %12, %19
  br i1 %20, label %21, label %25

21:                                               ; preds = %3
  %22 = call noundef ptr @_ZNK4llvm9StringRef4dataEv(ptr noundef nonnull align 8 dereferenceable(16) %5)
  %23 = load i64, ptr %7, align 8
  %24 = call noundef nonnull align 8 dereferenceable(48) ptr @_ZN4llvm11raw_ostream5writeEPKcm(ptr noundef nonnull align 8 dereferenceable(48) %10, ptr noundef %22, i64 noundef %23)
  store ptr %24, ptr %4, align 8
  br label %38

25:                                               ; preds = %3
  %26 = load i64, ptr %7, align 8
  %27 = icmp ne i64 %26, 0
  br i1 %27, label %28, label %37

28:                                               ; preds = %25
  %29 = getelementptr inbounds nuw %"class.llvm::raw_ostream", ptr %10, i32 0, i32 4
  %30 = load ptr, ptr %29, align 8
  %31 = call noundef ptr @_ZNK4llvm9StringRef4dataEv(ptr noundef nonnull align 8 dereferenceable(16) %5)
  %32 = load i64, ptr %7, align 8
  call void @llvm.memcpy.p0.p0.i64(ptr align 1 %30, ptr align 1 %31, i64 %32, i1 false)
  %33 = load i64, ptr %7, align 8
  %34 = getelementptr inbounds nuw %"class.llvm::raw_ostream", ptr %10, i32 0, i32 4
  %35 = load ptr, ptr %34, align 8
  %36 = getelementptr inbounds i8, ptr %35, i64 %33
  store ptr %36, ptr %34, align 8
  br label %37

37:                                               ; preds = %28, %25
  store ptr %10, ptr %4, align 8
  br label %38

38:                                               ; preds = %37, %21
  %39 = load ptr, ptr %4, align 8
  ret ptr %39
}

; Function Attrs: mustprogress nounwind uwtable
define linkonce_odr hidden void @_ZN4llvm9StringRefC2EPKc(ptr noundef nonnull align 8 dereferenceable(16) %0, ptr noundef %1) unnamed_addr #0 comdat align 2 {
  %3 = alloca ptr, align 8
  %4 = alloca ptr, align 8
  store ptr %0, ptr %3, align 8
  store ptr %1, ptr %4, align 8
  %5 = load ptr, ptr %3, align 8
  %6 = getelementptr inbounds nuw %"class.llvm::StringRef", ptr %5, i32 0, i32 0
  %7 = load ptr, ptr %4, align 8
  store ptr %7, ptr %6, align 8
  %8 = getelementptr inbounds nuw %"class.llvm::StringRef", ptr %5, i32 0, i32 1
  %9 = load ptr, ptr %4, align 8
  %10 = icmp ne ptr %9, null
  br i1 %10, label %11, label %14

11:                                               ; preds = %2
  %12 = load ptr, ptr %4, align 8
  %13 = call noundef i64 @_ZNSt11char_traitsIcE6lengthEPKc(ptr noundef %12)
  br label %15

14:                                               ; preds = %2
  br label %15

15:                                               ; preds = %14, %11
  %16 = phi i64 [ %13, %11 ], [ 0, %14 ]
  store i64 %16, ptr %8, align 8
  ret void
}

; Function Attrs: mustprogress nounwind uwtable
define linkonce_odr hidden noundef nonnull align 8 dereferenceable(48) ptr @_ZN4llvm11raw_ostreamlsEPKc(ptr noundef nonnull align 8 dereferenceable(48) %0, ptr noundef %1) #0 comdat align 2 {
  %3 = alloca ptr, align 8
  %4 = alloca ptr, align 8
  %5 = alloca %"class.llvm::StringRef", align 8
  store ptr %0, ptr %3, align 8
  store ptr %1, ptr %4, align 8
  %6 = load ptr, ptr %3, align 8
  %7 = load ptr, ptr %4, align 8
  call void @_ZN4llvm9StringRefC2EPKc(ptr noundef nonnull align 8 dereferenceable(16) %5, ptr noundef %7)
  %8 = getelementptr inbounds nuw { ptr, i64 }, ptr %5, i32 0, i32 0
  %9 = load ptr, ptr %8, align 8
  %10 = getelementptr inbounds nuw { ptr, i64 }, ptr %5, i32 0, i32 1
  %11 = load i64, ptr %10, align 8
  %12 = call noundef nonnull align 8 dereferenceable(48) ptr @_ZN4llvm11raw_ostreamlsENS_9StringRefE(ptr noundef nonnull align 8 dereferenceable(48) %6, ptr %9, i64 %11)
  ret ptr %12
}

; Function Attrs: mustprogress nounwind uwtable
define linkonce_odr hidden noundef zeroext i1 @_ZNK5clang16OMPVarListClauseINS_20OMPIsDevicePtrClauseEE13varlist_emptyEv(ptr noundef nonnull align 4 dereferenceable(20) %0) #0 comdat align 2 {
  %2 = alloca ptr, align 8
  store ptr %0, ptr %2, align 8
  %3 = load ptr, ptr %2, align 8
  %4 = getelementptr inbounds nuw %"class.clang::OMPVarListClause.96", ptr %3, i32 0, i32 2
  %5 = load i32, ptr %4, align 4
  %6 = icmp eq i32 %5, 0
  ret i1 %6
}

; Function Attrs: mustprogress nounwind uwtable
define dso_local void @_ZN5clang16OMPClausePrinter25VisitOMPIsDevicePtrClauseEPNS_20OMPIsDevicePtrClauseE(ptr noundef nonnull align 8 dereferenceable(16) %0, ptr noundef %1) #0 align 2 {
  %3 = alloca ptr, align 8
  %4 = alloca ptr, align 8
  store ptr %0, ptr %3, align 8
  store ptr %1, ptr %4, align 8
  %5 = load ptr, ptr %3, align 8
  %6 = load ptr, ptr %4, align 8
  %7 = call noundef zeroext i1 @_ZNK5clang16OMPVarListClauseINS_20OMPIsDevicePtrClauseEE13varlist_emptyEv(ptr noundef nonnull align 4 dereferenceable(20) %6)
  br i1 %7, label %16, label %8

8:                                                ; preds = %2
  %9 = getelementptr inbounds nuw %"class.clang::OMPClausePrinter", ptr %5, i32 0, i32 0
  %10 = load ptr, ptr %9, align 8
  %11 = call noundef nonnull align 8 dereferenceable(48) ptr @_ZN4llvm11raw_ostreamlsEPKc(ptr noundef nonnull align 8 dereferenceable(48) %10, ptr noundef @.str.95)
  %12 = load ptr, ptr %4, align 8
  call void @_ZN5clang16OMPClausePrinter18VisitOMPClauseListINS_20OMPIsDevicePtrClauseEEEvPT_c(ptr noundef nonnull align 8 dereferenceable(16) %5, ptr noundef %12, i8 noundef signext 40)
  %13 = getelementptr inbounds nuw %"class.clang::OMPClausePrinter", ptr %5, i32 0, i32 0
  %14 = load ptr, ptr %13, align 8
  %15 = call noundef nonnull align 8 dereferenceable(48) ptr @_ZN4llvm11raw_ostreamlsEPKc(ptr noundef nonnull align 8 dereferenceable(48) %14, ptr noundef @.str.3)
  br label %16

16:                                               ; preds = %8, %2
  ret void
}