; Function Attrs: mustprogress nounwind uwtable
define dso_local void @_ZN5clang16OMPClausePrinter25VisitOMPIsDevicePtrClauseEPNS_20OMPIsDevicePtrClauseE(ptr noundef nonnull align 8 dereferenceable(16) %0, ptr noundef %1) local_unnamed_addr #1 align 2 {
  %3 = getelementptr inbounds nuw i8, ptr %1, i64 16
  %4 = load i32, ptr %3, align 4
  %5 = icmp eq i32 %4, 0
  br i1 %5, label %_ZN4llvm11raw_ostreamlsEPKc.exit5, label %6

6:                                                ; preds = %2
  %7 = load ptr, ptr %0, align 8
  %8 = getelementptr inbounds nuw i8, ptr %7, i64 24
  %9 = load ptr, ptr %8, align 8
  %10 = getelementptr inbounds nuw i8, ptr %7, i64 32
  %11 = load ptr, ptr %10, align 8
  %12 = ptrtoint ptr %9 to i64
  %13 = ptrtoint ptr %11 to i64
  %14 = sub i64 %12, %13
  %15 = icmp ult i64 %14, 13
  br i1 %15, label %16, label %18

16:                                               ; preds = %6
  %17 = tail call noundef nonnull align 8 dereferenceable(48) ptr @_ZN4llvm11raw_ostream5writeEPKcm(ptr noundef nonnull align 8 dereferenceable(48) %7, ptr noundef nonnull @.str.95, i64 noundef 13) #22
  br label %_ZN4llvm11raw_ostreamlsEPKc.exit

18:                                               ; preds = %6
  tail call void @llvm.memcpy.p0.p0.i64(ptr noundef nonnull align 1 dereferenceable(13) %11, ptr noundef nonnull align 1 dereferenceable(13) @.str.95, i64 13, i1 false)
  %19 = load ptr, ptr %10, align 8
  %20 = getelementptr inbounds nuw i8, ptr %19, i64 13
  store ptr %20, ptr %10, align 8
  br label %_ZN4llvm11raw_ostreamlsEPKc.exit

_ZN4llvm11raw_ostreamlsEPKc.exit:                 ; preds = %16, %18
  tail call void @_ZN5clang16OMPClausePrinter18VisitOMPClauseListINS_20OMPIsDevicePtrClauseEEEvPT_c(ptr noundef nonnull align 8 dereferenceable(16) %0, ptr noundef nonnull %1, i8 noundef signext 40)
  %21 = load ptr, ptr %0, align 8
  %22 = getelementptr inbounds nuw i8, ptr %21, i64 24
  %23 = load ptr, ptr %22, align 8
  %24 = getelementptr inbounds nuw i8, ptr %21, i64 32
  %25 = load ptr, ptr %24, align 8
  %26 = icmp eq ptr %23, %25
  br i1 %26, label %27, label %29

27:                                               ; preds = %_ZN4llvm11raw_ostreamlsEPKc.exit
  %28 = tail call noundef nonnull align 8 dereferenceable(48) ptr @_ZN4llvm11raw_ostream5writeEPKcm(ptr noundef nonnull align 8 dereferenceable(48) %21, ptr noundef nonnull @.str.3, i64 noundef 1) #22
  br label %_ZN4llvm11raw_ostreamlsEPKc.exit5

29:                                               ; preds = %_ZN4llvm11raw_ostreamlsEPKc.exit
  store i8 41, ptr %25, align 1
  %30 = load ptr, ptr %24, align 8
  %31 = getelementptr inbounds nuw i8, ptr %30, i64 1
  store ptr %31, ptr %24, align 8
  br label %_ZN4llvm11raw_ostreamlsEPKc.exit5

_ZN4llvm11raw_ostreamlsEPKc.exit5:                ; preds = %29, %27, %2
  ret void
}